
Laboratorio III.elf:     file format elf32-avr

Sections:
Idx Name          Size      VMA       LMA       File off  Algn
  0 .data         00000000  00800100  00000310  000003a4  2**0
                  ALLOC, LOAD, DATA
  1 .text         000000c4  00000000  00000000  00000094  2**1
                  CONTENTS, ALLOC, LOAD, READONLY, CODE
  2 .comment      0000002f  00000000  00000000  000003a4  2**0
                  CONTENTS, READONLY
  3 .stack.descriptors.hdr 0000000e  00000000  00000000  000003d3  2**0
                  CONTENTS, READONLY
  4 .debug_aranges 00000030  00000000  00000000  000003e1  2**0
                  CONTENTS, READONLY, DEBUGGING
  5 .debug_info   00000a3f  00000000  00000000  00000411  2**0
                  CONTENTS, READONLY, DEBUGGING
  6 .debug_abbrev 000006df  00000000  00000000  00000e50  2**0
                  CONTENTS, READONLY, DEBUGGING
  7 .debug_line   00000390  00000000  00000000  0000152f  2**0
                  CONTENTS, READONLY, DEBUGGING
  8 .debug_frame  00000064  00000000  00000000  000018c0  2**2
                  CONTENTS, READONLY, DEBUGGING
  9 .debug_str    00000211  00000000  00000000  00001924  2**0
                  CONTENTS, READONLY, DEBUGGING
 10 .debug_loc    00000142  00000000  00000000  00001b35  2**0
                  CONTENTS, READONLY, DEBUGGING
 11 .debug_ranges 00000020  00000000  00000000  00001c77  2**0
                  CONTENTS, READONLY, DEBUGGING
 12 .text         00000004  000002e2  000002e2  00000376  2**1
                  CONTENTS, ALLOC, LOAD, READONLY, CODE
 13 .note.gnu.avr.deviceinfo 00000040  00000000  00000000  00001c98  2**2
                  CONTENTS, READONLY, DEBUGGING
 14 .rodata       00000020  00800100  000002f0  00000384  2**0
                  CONTENTS, ALLOC, LOAD, DATA
 15 .text.setStepX 000000ea  000000c4  000000c4  00000158  2**1
                  CONTENTS, ALLOC, LOAD, READONLY, CODE
 16 .text.setStepY 000000ea  000001ae  000001ae  00000242  2**1
                  CONTENTS, ALLOC, LOAD, READONLY, CODE
 17 .text.main    00000034  00000298  00000298  0000032c  2**1
                  CONTENTS, ALLOC, LOAD, READONLY, CODE
 18 .text.__dummy_fini 00000002  000002ea  000002ea  0000037e  2**1
                  CONTENTS, ALLOC, LOAD, READONLY, CODE
 19 .text.__dummy_funcs_on_exit 00000002  000002ec  000002ec  00000380  2**1
                  CONTENTS, ALLOC, LOAD, READONLY, CODE
 20 .text.__dummy_simulator_exit 00000002  000002ee  000002ee  00000382  2**1
                  CONTENTS, ALLOC, LOAD, READONLY, CODE
 21 .text.exit    00000016  000002cc  000002cc  00000360  2**1
                  CONTENTS, ALLOC, LOAD, READONLY, CODE
 22 .text._Exit   00000004  000002e6  000002e6  0000037a  2**1
                  CONTENTS, ALLOC, LOAD, READONLY, CODE

Disassembly of section .text:

00000000 <__vectors>:
   0:	0c 94 38 00 	jmp	0x70	; 0x70 <__ctors_end>
   4:	0c 94 71 01 	jmp	0x2e2	; 0x2e2 <__bad_interrupt>
   8:	0c 94 71 01 	jmp	0x2e2	; 0x2e2 <__bad_interrupt>
   c:	0c 94 71 01 	jmp	0x2e2	; 0x2e2 <__bad_interrupt>
  10:	0c 94 71 01 	jmp	0x2e2	; 0x2e2 <__bad_interrupt>
  14:	0c 94 71 01 	jmp	0x2e2	; 0x2e2 <__bad_interrupt>
  18:	0c 94 71 01 	jmp	0x2e2	; 0x2e2 <__bad_interrupt>
  1c:	0c 94 71 01 	jmp	0x2e2	; 0x2e2 <__bad_interrupt>
  20:	0c 94 71 01 	jmp	0x2e2	; 0x2e2 <__bad_interrupt>
  24:	0c 94 71 01 	jmp	0x2e2	; 0x2e2 <__bad_interrupt>
  28:	0c 94 71 01 	jmp	0x2e2	; 0x2e2 <__bad_interrupt>
  2c:	0c 94 71 01 	jmp	0x2e2	; 0x2e2 <__bad_interrupt>
  30:	0c 94 71 01 	jmp	0x2e2	; 0x2e2 <__bad_interrupt>
  34:	0c 94 71 01 	jmp	0x2e2	; 0x2e2 <__bad_interrupt>
  38:	0c 94 71 01 	jmp	0x2e2	; 0x2e2 <__bad_interrupt>
  3c:	0c 94 71 01 	jmp	0x2e2	; 0x2e2 <__bad_interrupt>
  40:	0c 94 71 01 	jmp	0x2e2	; 0x2e2 <__bad_interrupt>
  44:	0c 94 71 01 	jmp	0x2e2	; 0x2e2 <__bad_interrupt>
  48:	0c 94 71 01 	jmp	0x2e2	; 0x2e2 <__bad_interrupt>
  4c:	0c 94 71 01 	jmp	0x2e2	; 0x2e2 <__bad_interrupt>
  50:	0c 94 71 01 	jmp	0x2e2	; 0x2e2 <__bad_interrupt>
  54:	0c 94 71 01 	jmp	0x2e2	; 0x2e2 <__bad_interrupt>
  58:	0c 94 71 01 	jmp	0x2e2	; 0x2e2 <__bad_interrupt>
  5c:	0c 94 71 01 	jmp	0x2e2	; 0x2e2 <__bad_interrupt>
  60:	0c 94 71 01 	jmp	0x2e2	; 0x2e2 <__bad_interrupt>
  64:	0c 94 71 01 	jmp	0x2e2	; 0x2e2 <__bad_interrupt>

00000068 <.dinit>:
  68:	01 00       	.word	0x0001	; ????
  6a:	01 20       	and	r0, r1
  6c:	00 02       	muls	r16, r16
  6e:	f0 00       	.word	0x00f0	; ????

00000070 <__ctors_end>:
  70:	11 24       	eor	r1, r1
  72:	1f be       	out	0x3f, r1	; 63
  74:	cf ef       	ldi	r28, 0xFF	; 255
  76:	d8 e0       	ldi	r29, 0x08	; 8
  78:	de bf       	out	0x3e, r29	; 62
  7a:	cd bf       	out	0x3d, r28	; 61

0000007c <__do_copy_data>:
  7c:	e8 e6       	ldi	r30, 0x68	; 104
  7e:	f0 e0       	ldi	r31, 0x00	; 0
  80:	40 e0       	ldi	r20, 0x00	; 0
  82:	17 c0       	rjmp	.+46     	; 0xb2 <__do_clear_bss+0x8>
  84:	b5 91       	lpm	r27, Z+
  86:	a5 91       	lpm	r26, Z+
  88:	35 91       	lpm	r19, Z+
  8a:	25 91       	lpm	r18, Z+
  8c:	05 91       	lpm	r16, Z+
  8e:	07 fd       	sbrc	r16, 7
  90:	0c c0       	rjmp	.+24     	; 0xaa <__do_clear_bss>
  92:	95 91       	lpm	r25, Z+
  94:	85 91       	lpm	r24, Z+
  96:	ef 01       	movw	r28, r30
  98:	f9 2f       	mov	r31, r25
  9a:	e8 2f       	mov	r30, r24
  9c:	05 90       	lpm	r0, Z+
  9e:	0d 92       	st	X+, r0
  a0:	a2 17       	cp	r26, r18
  a2:	b3 07       	cpc	r27, r19
  a4:	d9 f7       	brne	.-10     	; 0x9c <__do_copy_data+0x20>
  a6:	fe 01       	movw	r30, r28
  a8:	04 c0       	rjmp	.+8      	; 0xb2 <__do_clear_bss+0x8>

000000aa <__do_clear_bss>:
  aa:	1d 92       	st	X+, r1
  ac:	a2 17       	cp	r26, r18
  ae:	b3 07       	cpc	r27, r19
  b0:	e1 f7       	brne	.-8      	; 0xaa <__do_clear_bss>
  b2:	ef 36       	cpi	r30, 0x6F	; 111
  b4:	f4 07       	cpc	r31, r20
  b6:	31 f7       	brne	.-52     	; 0x84 <__do_copy_data+0x8>
  b8:	0e 94 4c 01 	call	0x298	; 0x298 <main>
  bc:	0c 94 66 01 	jmp	0x2cc	; 0x2cc <exit>

000000c0 <_exit>:
  c0:	f8 94       	cli

000000c2 <__stop_program>:
  c2:	ff cf       	rjmp	.-2      	; 0xc2 <__stop_program>

Disassembly of section .text:

000002e2 <__bad_interrupt>:
 2e2:	0c 94 00 00 	jmp	0	; 0x0 <__TEXT_REGION_ORIGIN__>

Disassembly of section .text.setStepX:

000000c4 <setStepX>:
#define YIN4 PIND5

//?????????????????????????????????????????????????????????????????????????????????????????//

void setStepX(int step)
{
  c4:	cf 93       	push	r28
  c6:	df 93       	push	r29
  c8:	cd b7       	in	r28, 0x3d	; 61
  ca:	de b7       	in	r29, 0x3e	; 62
  cc:	a0 97       	sbiw	r28, 0x20	; 32
  ce:	0f b6       	in	r0, 0x3f	; 63
  d0:	f8 94       	cli
  d2:	de bf       	out	0x3e, r29	; 62
  d4:	0f be       	out	0x3f, r0	; 63
  d6:	cd bf       	out	0x3d, r28	; 61
	// Tabla de pasos
	int sequence[4][4] =
  d8:	20 e2       	ldi	r18, 0x20	; 32
  da:	e0 e0       	ldi	r30, 0x00	; 0
  dc:	f1 e0       	ldi	r31, 0x01	; 1
  de:	de 01       	movw	r26, r28
  e0:	11 96       	adiw	r26, 0x01	; 1
  e2:	01 90       	ld	r0, Z+
  e4:	0d 92       	st	X+, r0
  e6:	2a 95       	dec	r18
  e8:	e1 f7       	brne	.-8      	; 0xe2 <setStepX+0x1e>
		{0, 1, 0, 1},
		{1, 0, 0, 1}
	};

	// Configura los pines del puente HX según la tabla
	for (int i = 0; i < 4; i++)
  ea:	20 e0       	ldi	r18, 0x00	; 0
  ec:	30 e0       	ldi	r19, 0x00	; 0
  ee:	52 c0       	rjmp	.+164    	; 0x194 <setStepX+0xd0>
	{
		if (sequence[step][i])
  f0:	fc 01       	movw	r30, r24
  f2:	ee 0f       	add	r30, r30
  f4:	ff 1f       	adc	r31, r31
  f6:	ee 0f       	add	r30, r30
  f8:	ff 1f       	adc	r31, r31
  fa:	e2 0f       	add	r30, r18
  fc:	f3 1f       	adc	r31, r19
  fe:	ee 0f       	add	r30, r30
 100:	ff 1f       	adc	r31, r31
 102:	41 e0       	ldi	r20, 0x01	; 1
 104:	50 e0       	ldi	r21, 0x00	; 0
 106:	4c 0f       	add	r20, r28
 108:	5d 1f       	adc	r21, r29
 10a:	e4 0f       	add	r30, r20
 10c:	f5 1f       	adc	r31, r21
 10e:	40 81       	ld	r20, Z
 110:	51 81       	ldd	r21, Z+1	; 0x01
 112:	45 2b       	or	r20, r21
 114:	f9 f0       	breq	.+62     	; 0x154 <setStepX+0x90>
		{
			// Configura el pin en alto
			switch (i)
 116:	21 30       	cpi	r18, 0x01	; 1
 118:	31 05       	cpc	r19, r1
 11a:	81 f0       	breq	.+32     	; 0x13c <setStepX+0x78>
 11c:	24 f4       	brge	.+8      	; 0x126 <setStepX+0x62>
 11e:	21 15       	cp	r18, r1
 120:	31 05       	cpc	r19, r1
 122:	41 f0       	breq	.+16     	; 0x134 <setStepX+0x70>
 124:	35 c0       	rjmp	.+106    	; 0x190 <setStepX+0xcc>
 126:	22 30       	cpi	r18, 0x02	; 2
 128:	31 05       	cpc	r19, r1
 12a:	61 f0       	breq	.+24     	; 0x144 <setStepX+0x80>
 12c:	23 30       	cpi	r18, 0x03	; 3
 12e:	31 05       	cpc	r19, r1
 130:	69 f0       	breq	.+26     	; 0x14c <setStepX+0x88>
 132:	2e c0       	rjmp	.+92     	; 0x190 <setStepX+0xcc>
			{
				case 0:
				PORTB |= (1 << XIN1);
 134:	45 b1       	in	r20, 0x05	; 5
 136:	41 60       	ori	r20, 0x01	; 1
 138:	45 b9       	out	0x05, r20	; 5
				break;
 13a:	2a c0       	rjmp	.+84     	; 0x190 <setStepX+0xcc>
				case 1:
				PORTB |= (1 << XIN2);
 13c:	45 b1       	in	r20, 0x05	; 5
 13e:	42 60       	ori	r20, 0x02	; 2
 140:	45 b9       	out	0x05, r20	; 5
				break;
 142:	26 c0       	rjmp	.+76     	; 0x190 <setStepX+0xcc>
				case 2:
				PORTB |= (1 << XIN3);
 144:	45 b1       	in	r20, 0x05	; 5
 146:	44 60       	ori	r20, 0x04	; 4
 148:	45 b9       	out	0x05, r20	; 5
				break;
 14a:	22 c0       	rjmp	.+68     	; 0x190 <setStepX+0xcc>
				case 3:
				PORTB |= (1 << XIN4);
 14c:	45 b1       	in	r20, 0x05	; 5
 14e:	48 60       	ori	r20, 0x08	; 8
 150:	45 b9       	out	0x05, r20	; 5
				break;
 152:	1e c0       	rjmp	.+60     	; 0x190 <setStepX+0xcc>
			}
		}
		else
		{
			// Configura el pin en bajo
			switch (i)
 154:	21 30       	cpi	r18, 0x01	; 1
 156:	31 05       	cpc	r19, r1
 158:	81 f0       	breq	.+32     	; 0x17a <setStepX+0xb6>
 15a:	24 f4       	brge	.+8      	; 0x164 <setStepX+0xa0>
 15c:	21 15       	cp	r18, r1
 15e:	31 05       	cpc	r19, r1
 160:	41 f0       	breq	.+16     	; 0x172 <setStepX+0xae>
 162:	16 c0       	rjmp	.+44     	; 0x190 <setStepX+0xcc>
 164:	22 30       	cpi	r18, 0x02	; 2
 166:	31 05       	cpc	r19, r1
 168:	61 f0       	breq	.+24     	; 0x182 <setStepX+0xbe>
 16a:	23 30       	cpi	r18, 0x03	; 3
 16c:	31 05       	cpc	r19, r1
 16e:	69 f0       	breq	.+26     	; 0x18a <setStepX+0xc6>
 170:	0f c0       	rjmp	.+30     	; 0x190 <setStepX+0xcc>
			{
				case 0:
				PORTB &= ~(1 << XIN1);
 172:	45 b1       	in	r20, 0x05	; 5
 174:	4e 7f       	andi	r20, 0xFE	; 254
 176:	45 b9       	out	0x05, r20	; 5
				break;
 178:	0b c0       	rjmp	.+22     	; 0x190 <setStepX+0xcc>
				case 1:
				PORTB &= ~(1 << XIN2);
 17a:	45 b1       	in	r20, 0x05	; 5
 17c:	4d 7f       	andi	r20, 0xFD	; 253
 17e:	45 b9       	out	0x05, r20	; 5
				break;
 180:	07 c0       	rjmp	.+14     	; 0x190 <setStepX+0xcc>
				case 2:
				PORTB &= ~(1 << XIN3);
 182:	45 b1       	in	r20, 0x05	; 5
 184:	4b 7f       	andi	r20, 0xFB	; 251
 186:	45 b9       	out	0x05, r20	; 5
				break;
 188:	03 c0       	rjmp	.+6      	; 0x190 <setStepX+0xcc>
				case 3:
				PORTB &= ~(1 << XIN4);
 18a:	45 b1       	in	r20, 0x05	; 5
 18c:	47 7f       	andi	r20, 0xF7	; 247
 18e:	45 b9       	out	0x05, r20	; 5
		{0, 1, 0, 1},
		{1, 0, 0, 1}
	};

	// Configura los pines del puente HX según la tabla
	for (int i = 0; i < 4; i++)
 190:	2f 5f       	subi	r18, 0xFF	; 255
 192:	3f 4f       	sbci	r19, 0xFF	; 255
 194:	24 30       	cpi	r18, 0x04	; 4
 196:	31 05       	cpc	r19, r1
 198:	0c f4       	brge	.+2      	; 0x19c <setStepX+0xd8>
 19a:	aa cf       	rjmp	.-172    	; 0xf0 <setStepX+0x2c>
				PORTB &= ~(1 << XIN4);
				break;
			}
		}
	}
}
 19c:	a0 96       	adiw	r28, 0x20	; 32
 19e:	0f b6       	in	r0, 0x3f	; 63
 1a0:	f8 94       	cli
 1a2:	de bf       	out	0x3e, r29	; 62
 1a4:	0f be       	out	0x3f, r0	; 63
 1a6:	cd bf       	out	0x3d, r28	; 61
 1a8:	df 91       	pop	r29
 1aa:	cf 91       	pop	r28
 1ac:	08 95       	ret

Disassembly of section .text.setStepY:

000001ae <setStepY>:

//?????????????????????????????????????????????????????????????????????????????????????????//

void setStepY(int step)
{
 1ae:	cf 93       	push	r28
 1b0:	df 93       	push	r29
 1b2:	cd b7       	in	r28, 0x3d	; 61
 1b4:	de b7       	in	r29, 0x3e	; 62
 1b6:	a0 97       	sbiw	r28, 0x20	; 32
 1b8:	0f b6       	in	r0, 0x3f	; 63
 1ba:	f8 94       	cli
 1bc:	de bf       	out	0x3e, r29	; 62
 1be:	0f be       	out	0x3f, r0	; 63
 1c0:	cd bf       	out	0x3d, r28	; 61
	// Tabla de pasos
	int sequence[4][4] =
 1c2:	20 e2       	ldi	r18, 0x20	; 32
 1c4:	e0 e0       	ldi	r30, 0x00	; 0
 1c6:	f1 e0       	ldi	r31, 0x01	; 1
 1c8:	de 01       	movw	r26, r28
 1ca:	11 96       	adiw	r26, 0x01	; 1
 1cc:	01 90       	ld	r0, Z+
 1ce:	0d 92       	st	X+, r0
 1d0:	2a 95       	dec	r18
 1d2:	e1 f7       	brne	.-8      	; 0x1cc <setStepY+0x1e>
		{0, 1, 0, 1},
		{1, 0, 0, 1}
	};

	// Configura los pines del puente HY según la tabla
	for (int i = 0; i < 4; i++)
 1d4:	20 e0       	ldi	r18, 0x00	; 0
 1d6:	30 e0       	ldi	r19, 0x00	; 0
 1d8:	52 c0       	rjmp	.+164    	; 0x27e <setStepY+0xd0>
	{
		if (sequence[step][i])
 1da:	fc 01       	movw	r30, r24
 1dc:	ee 0f       	add	r30, r30
 1de:	ff 1f       	adc	r31, r31
 1e0:	ee 0f       	add	r30, r30
 1e2:	ff 1f       	adc	r31, r31
 1e4:	e2 0f       	add	r30, r18
 1e6:	f3 1f       	adc	r31, r19
 1e8:	ee 0f       	add	r30, r30
 1ea:	ff 1f       	adc	r31, r31
 1ec:	41 e0       	ldi	r20, 0x01	; 1
 1ee:	50 e0       	ldi	r21, 0x00	; 0
 1f0:	4c 0f       	add	r20, r28
 1f2:	5d 1f       	adc	r21, r29
 1f4:	e4 0f       	add	r30, r20
 1f6:	f5 1f       	adc	r31, r21
 1f8:	40 81       	ld	r20, Z
 1fa:	51 81       	ldd	r21, Z+1	; 0x01
 1fc:	45 2b       	or	r20, r21
 1fe:	f9 f0       	breq	.+62     	; 0x23e <setStepY+0x90>
		{
			// Configura el pin en alto
			switch (i)
 200:	21 30       	cpi	r18, 0x01	; 1
 202:	31 05       	cpc	r19, r1
 204:	81 f0       	breq	.+32     	; 0x226 <setStepY+0x78>
 206:	24 f4       	brge	.+8      	; 0x210 <setStepY+0x62>
 208:	21 15       	cp	r18, r1
 20a:	31 05       	cpc	r19, r1
 20c:	41 f0       	breq	.+16     	; 0x21e <setStepY+0x70>
 20e:	35 c0       	rjmp	.+106    	; 0x27a <setStepY+0xcc>
 210:	22 30       	cpi	r18, 0x02	; 2
 212:	31 05       	cpc	r19, r1
 214:	61 f0       	breq	.+24     	; 0x22e <setStepY+0x80>
 216:	23 30       	cpi	r18, 0x03	; 3
 218:	31 05       	cpc	r19, r1
 21a:	69 f0       	breq	.+26     	; 0x236 <setStepY+0x88>
 21c:	2e c0       	rjmp	.+92     	; 0x27a <setStepY+0xcc>
			{
				case 0:
				PORTD |= (1 << YIN1);
 21e:	4b b1       	in	r20, 0x0b	; 11
 220:	44 60       	ori	r20, 0x04	; 4
 222:	4b b9       	out	0x0b, r20	; 11
				break;
 224:	2a c0       	rjmp	.+84     	; 0x27a <setStepY+0xcc>
				case 1:
				PORTD |= (1 << YIN2);
 226:	4b b1       	in	r20, 0x0b	; 11
 228:	48 60       	ori	r20, 0x08	; 8
 22a:	4b b9       	out	0x0b, r20	; 11
				break;
 22c:	26 c0       	rjmp	.+76     	; 0x27a <setStepY+0xcc>
				case 2:
				PORTD |= (1 << YIN3);
 22e:	4b b1       	in	r20, 0x0b	; 11
 230:	40 61       	ori	r20, 0x10	; 16
 232:	4b b9       	out	0x0b, r20	; 11
				break;
 234:	22 c0       	rjmp	.+68     	; 0x27a <setStepY+0xcc>
				case 3:
				PORTD |= (1 << YIN4);
 236:	4b b1       	in	r20, 0x0b	; 11
 238:	40 62       	ori	r20, 0x20	; 32
 23a:	4b b9       	out	0x0b, r20	; 11
				break;
 23c:	1e c0       	rjmp	.+60     	; 0x27a <setStepY+0xcc>
			}
		}
		else
		{
			// Configura el pin en bajo
			switch (i)
 23e:	21 30       	cpi	r18, 0x01	; 1
 240:	31 05       	cpc	r19, r1
 242:	81 f0       	breq	.+32     	; 0x264 <setStepY+0xb6>
 244:	24 f4       	brge	.+8      	; 0x24e <setStepY+0xa0>
 246:	21 15       	cp	r18, r1
 248:	31 05       	cpc	r19, r1
 24a:	41 f0       	breq	.+16     	; 0x25c <setStepY+0xae>
 24c:	16 c0       	rjmp	.+44     	; 0x27a <setStepY+0xcc>
 24e:	22 30       	cpi	r18, 0x02	; 2
 250:	31 05       	cpc	r19, r1
 252:	61 f0       	breq	.+24     	; 0x26c <setStepY+0xbe>
 254:	23 30       	cpi	r18, 0x03	; 3
 256:	31 05       	cpc	r19, r1
 258:	69 f0       	breq	.+26     	; 0x274 <setStepY+0xc6>
 25a:	0f c0       	rjmp	.+30     	; 0x27a <setStepY+0xcc>
			{
				case 0:
				PORTD &= ~(1 << YIN1);
 25c:	4b b1       	in	r20, 0x0b	; 11
 25e:	4b 7f       	andi	r20, 0xFB	; 251
 260:	4b b9       	out	0x0b, r20	; 11
				break;
 262:	0b c0       	rjmp	.+22     	; 0x27a <setStepY+0xcc>
				case 1:
				PORTD &= ~(1 << YIN2);
 264:	4b b1       	in	r20, 0x0b	; 11
 266:	47 7f       	andi	r20, 0xF7	; 247
 268:	4b b9       	out	0x0b, r20	; 11
				break;
 26a:	07 c0       	rjmp	.+14     	; 0x27a <setStepY+0xcc>
				case 2:
				PORTD &= ~(1 << YIN3);
 26c:	4b b1       	in	r20, 0x0b	; 11
 26e:	4f 7e       	andi	r20, 0xEF	; 239
 270:	4b b9       	out	0x0b, r20	; 11
				break;
 272:	03 c0       	rjmp	.+6      	; 0x27a <setStepY+0xcc>
				case 3:
				PORTD &= ~(1 << YIN4);
 274:	4b b1       	in	r20, 0x0b	; 11
 276:	4f 7d       	andi	r20, 0xDF	; 223
 278:	4b b9       	out	0x0b, r20	; 11
		{0, 1, 0, 1},
		{1, 0, 0, 1}
	};

	// Configura los pines del puente HY según la tabla
	for (int i = 0; i < 4; i++)
 27a:	2f 5f       	subi	r18, 0xFF	; 255
 27c:	3f 4f       	sbci	r19, 0xFF	; 255
 27e:	24 30       	cpi	r18, 0x04	; 4
 280:	31 05       	cpc	r19, r1
 282:	0c f4       	brge	.+2      	; 0x286 <setStepY+0xd8>
 284:	aa cf       	rjmp	.-172    	; 0x1da <setStepY+0x2c>
				PORTD &= ~(1 << YIN4);
				break;
			}
		}
	}
}
 286:	a0 96       	adiw	r28, 0x20	; 32
 288:	0f b6       	in	r0, 0x3f	; 63
 28a:	f8 94       	cli
 28c:	de bf       	out	0x3e, r29	; 62
 28e:	0f be       	out	0x3f, r0	; 63
 290:	cd bf       	out	0x3d, r28	; 61
 292:	df 91       	pop	r29
 294:	cf 91       	pop	r28
 296:	08 95       	ret

Disassembly of section .text.main:

00000298 <main>:
//?????????????????????????????????????????????????????????????????????????????????????????//

int main(void)
{
	// Configura los pines de control del puente HX como salidas
	DDRB |= (1 << XIN1) | (1 << XIN2) | (1 << XIN3) | (1 << XIN4);
 298:	84 b1       	in	r24, 0x04	; 4
 29a:	8f 60       	ori	r24, 0x0F	; 15
 29c:	84 b9       	out	0x04, r24	; 4
	
	// Configura los pines de control del puente HY como salidas
	DDRD |= (1 << YIN1) | (1 << YIN2) | (1 << YIN3) | (1 << YIN4);
 29e:	8a b1       	in	r24, 0x0a	; 10
 2a0:	8c 63       	ori	r24, 0x3C	; 60
 2a2:	8a b9       	out	0x0a, r24	; 10

	while (1)
	{
		// Gira el motor en una dirección
		for (int i = 0; i < 4; i++)
 2a4:	c0 e0       	ldi	r28, 0x00	; 0
 2a6:	d0 e0       	ldi	r29, 0x00	; 0
 2a8:	0d c0       	rjmp	.+26     	; 0x2c4 <main+0x2c>
		{
			setStepX(i);
 2aa:	ce 01       	movw	r24, r28
 2ac:	0e 94 62 00 	call	0xc4	; 0xc4 <__data_load_end>
			setStepY(i);
 2b0:	ce 01       	movw	r24, r28
 2b2:	0e 94 d7 00 	call	0x1ae	; 0x1ae <setStepY>
	#else
		//round up by default
		__ticks_dc = (uint32_t)(ceil(fabs(__tmp)));
	#endif

	__builtin_avr_delay_cycles(__ticks_dc);
 2b6:	87 ea       	ldi	r24, 0xA7	; 167
 2b8:	91 e6       	ldi	r25, 0x61	; 97
 2ba:	01 97       	sbiw	r24, 0x01	; 1
 2bc:	f1 f7       	brne	.-4      	; 0x2ba <main+0x22>
 2be:	00 c0       	rjmp	.+0      	; 0x2c0 <main+0x28>
 2c0:	00 00       	nop
	DDRD |= (1 << YIN1) | (1 << YIN2) | (1 << YIN3) | (1 << YIN4);

	while (1)
	{
		// Gira el motor en una dirección
		for (int i = 0; i < 4; i++)
 2c2:	21 96       	adiw	r28, 0x01	; 1
 2c4:	c4 30       	cpi	r28, 0x04	; 4
 2c6:	d1 05       	cpc	r29, r1
 2c8:	84 f3       	brlt	.-32     	; 0x2aa <main+0x12>
 2ca:	ec cf       	rjmp	.-40     	; 0x2a4 <main+0xc>

Disassembly of section .text.__dummy_fini:

000002ea <_fini>:
 2ea:	08 95       	ret

Disassembly of section .text.__dummy_funcs_on_exit:

000002ec <__funcs_on_exit>:
 2ec:	08 95       	ret

Disassembly of section .text.__dummy_simulator_exit:

000002ee <__simulator_exit>:
 2ee:	08 95       	ret

Disassembly of section .text.exit:

000002cc <exit>:
 2cc:	ec 01       	movw	r28, r24
 2ce:	0e 94 76 01 	call	0x2ec	; 0x2ec <__funcs_on_exit>
 2d2:	0e 94 75 01 	call	0x2ea	; 0x2ea <_fini>
 2d6:	ce 01       	movw	r24, r28
 2d8:	0e 94 77 01 	call	0x2ee	; 0x2ee <__simulator_exit>
 2dc:	ce 01       	movw	r24, r28
 2de:	0e 94 73 01 	call	0x2e6	; 0x2e6 <_Exit>

Disassembly of section .text._Exit:

000002e6 <_Exit>:
 2e6:	0e 94 60 00 	call	0xc0	; 0xc0 <_exit>
